target datalayout = "e-m:e-p270:32:32-p271:32:32-p272:64:64-i64:64-i128:128-f80:128-n8:16:32:64-S128"
target triple = "x86_64-pc-linux-gnu"

%struct.Msat_IntVec_t_ = type { ptr, i32, i32 }

; Function Attrs: nounwind uwtable
define ptr @Msat_IntVecAllocArray(ptr noundef %0, i32 noundef %1) #0 {
  %3 = alloca ptr, align 8
  %4 = alloca i32, align 4
  %5 = alloca ptr, align 8
  store ptr %0, ptr %3, align 8, !tbaa !15
  store i32 %1, ptr %4, align 4, !tbaa !3
  call void @llvm.lifetime.start.p0(i64 8, ptr %5) #7
  %6 = call noalias ptr @malloc(i64 noundef 16) #8
  store ptr %6, ptr %5, align 8, !tbaa !7
  %7 = load i32, ptr %4, align 4, !tbaa !3
  %8 = load ptr, ptr %5, align 8, !tbaa !7
  %9 = getelementptr inbounds nuw %struct.Msat_IntVec_t_, ptr %8, i32 0, i32 1
  store i32 %7, ptr %9, align 8, !tbaa !10
  %10 = load i32, ptr %4, align 4, !tbaa !3
  %11 = load ptr, ptr %5, align 8, !tbaa !7
  %12 = getelementptr inbounds nuw %struct.Msat_IntVec_t_, ptr %11, i32 0, i32 2
  store i32 %10, ptr %12, align 4, !tbaa !13
  %13 = load ptr, ptr %3, align 8, !tbaa !15
  %14 = load ptr, ptr %5, align 8, !tbaa !7
  %15 = getelementptr inbounds nuw %struct.Msat_IntVec_t_, ptr %14, i32 0, i32 0
  store ptr %13, ptr %15, align 8, !tbaa !14
  %16 = load ptr, ptr %5, align 8, !tbaa !7
  call void @llvm.lifetime.end.p0(i64 8, ptr %5) #7
  ret ptr %16
}