; Function Attrs: mustprogress nofree nounwind willreturn memory(write, argmem: none, inaccessiblemem: readwrite) uwtable
define noalias noundef ptr @Msat_IntVecAllocArray(ptr noundef %0, i32 noundef %1) local_unnamed_addr #0 {
  %3 = tail call noalias dereferenceable_or_null(16) ptr @malloc(i64 noundef 16) #19
  %4 = getelementptr inbounds nuw i8, ptr %3, i64 8
  store i32 %1, ptr %4, align 8, !tbaa !3
  %5 = getelementptr inbounds nuw i8, ptr %3, i64 12
  store i32 %1, ptr %5, align 4, !tbaa !10
  store ptr %0, ptr %3, align 8, !tbaa !11
  ret ptr %3
}